target datalayout = "e-m:e-p270:32:32-p271:32:32-p272:64:64-i64:64-i128:128-f80:128-n8:16:32:64-S128"
target triple = "x86_64-pc-linux-gnu"

%struct.ParsedText = type { ptr, i32, i32, i32 }
%struct.anon = type { i32, [0 x i8] }
%struct.FunctionCallInfoBaseData = type { ptr, ptr, ptr, i32, i8, i16, [0 x %struct.NullableDatum] }
%struct.NullableDatum = type { i64, i8 }
%struct.varattrib_1b = type { i8, [0 x i8] }
%struct.varattrib_1b_e = type { i8, i8, [0 x i8] }

; Function Attrs: inlinehint nounwind uwtable
define internal i64 @PointerGetDatum(ptr noundef %0) #1 {
  %2 = alloca ptr, align 8
  store ptr %0, ptr %2, align 8
  %3 = load ptr, ptr %2, align 8
  %4 = ptrtoint ptr %3 to i64
  ret i64 %4
}

; Function Attrs: inlinehint nounwind uwtable
define internal i64 @TSVectorGetDatum(ptr noundef %0) #1 {
  %2 = alloca ptr, align 8
  store ptr %0, ptr %2, align 8
  %3 = load ptr, ptr %2, align 8
  %4 = call i64 @PointerGetDatum(ptr noundef %3)
  ret i64 %4
}

; Function Attrs: inlinehint nounwind uwtable
define internal ptr @DatumGetPointer(i64 noundef %0) #1 {
  %2 = alloca i64, align 8
  store i64 %0, ptr %2, align 8
  %3 = load i64, ptr %2, align 8
  %4 = inttoptr i64 %3 to ptr
  ret ptr %4
}

; Function Attrs: inlinehint nounwind uwtable
define internal i32 @DatumGetObjectId(i64 noundef %0) #1 {
  %2 = alloca i64, align 8
  store i64 %0, ptr %2, align 8
  %3 = load i64, ptr %2, align 8
  %4 = trunc i64 %3 to i32
  ret i32 %4
}

; Function Attrs: nounwind uwtable
define dso_local i64 @to_tsvector_byid(ptr noundef %0) #0 {
  %2 = alloca ptr, align 8
  %3 = alloca i32, align 4
  %4 = alloca ptr, align 8
  %5 = alloca %struct.ParsedText, align 8
  %6 = alloca ptr, align 8
  store ptr %0, ptr %2, align 8
  call void @llvm.lifetime.start.p0(i64 4, ptr %3) #7
  %7 = load ptr, ptr %2, align 8
  %8 = getelementptr inbounds nuw %struct.FunctionCallInfoBaseData, ptr %7, i32 0, i32 6
  %9 = getelementptr inbounds [0 x %struct.NullableDatum], ptr %8, i64 0, i64 0
  %10 = getelementptr inbounds nuw %struct.NullableDatum, ptr %9, i32 0, i32 0
  %11 = load i64, ptr %10, align 8
  %12 = call i32 @DatumGetObjectId(i64 noundef %11)
  store i32 %12, ptr %3, align 4
  call void @llvm.lifetime.start.p0(i64 8, ptr %4) #7
  %13 = load ptr, ptr %2, align 8
  %14 = getelementptr inbounds nuw %struct.FunctionCallInfoBaseData, ptr %13, i32 0, i32 6
  %15 = getelementptr inbounds [0 x %struct.NullableDatum], ptr %14, i64 0, i64 1
  %16 = getelementptr inbounds nuw %struct.NullableDatum, ptr %15, i32 0, i32 0
  %17 = load i64, ptr %16, align 8
  %18 = call ptr @DatumGetPointer(i64 noundef %17)
  %19 = call ptr @pg_detoast_datum_packed(ptr noundef %18)
  store ptr %19, ptr %4, align 8
  call void @llvm.lifetime.start.p0(i64 24, ptr %5) #7
  call void @llvm.lifetime.start.p0(i64 8, ptr %6) #7
  %20 = load ptr, ptr %4, align 8
  %21 = getelementptr inbounds nuw %struct.varattrib_1b, ptr %20, i32 0, i32 0
  %22 = load i8, ptr %21, align 1
  %23 = zext i8 %22 to i32
  %24 = icmp eq i32 %23, 1
  br i1 %24, label %25, label %53

25:                                               ; preds = %1
  %26 = load ptr, ptr %4, align 8
  %27 = getelementptr inbounds nuw %struct.varattrib_1b_e, ptr %26, i32 0, i32 1
  %28 = load i8, ptr %27, align 1
  %29 = zext i8 %28 to i32
  %30 = icmp eq i32 %29, 1
  br i1 %30, label %31, label %32

31:                                               ; preds = %25
  br label %49

32:                                               ; preds = %25
  %33 = load ptr, ptr %4, align 8
  %34 = getelementptr inbounds nuw %struct.varattrib_1b_e, ptr %33, i32 0, i32 1
  %35 = load i8, ptr %34, align 1
  %36 = zext i8 %35 to i32
  %37 = and i32 %36, -2
  %38 = icmp eq i32 %37, 2
  br i1 %38, label %39, label %40

39:                                               ; preds = %32
  br label %47

40:                                               ; preds = %32
  %41 = load ptr, ptr %4, align 8
  %42 = getelementptr inbounds nuw %struct.varattrib_1b_e, ptr %41, i32 0, i32 1
  %43 = load i8, ptr %42, align 1
  %44 = zext i8 %43 to i32
  %45 = icmp eq i32 %44, 18
  %46 = select i1 %45, i64 16, i64 0
  br label %47

47:                                               ; preds = %40, %39
  %48 = phi i64 [ 8, %39 ], [ %46, %40 ]
  br label %49

49:                                               ; preds = %47, %31
  %50 = phi i64 [ 8, %31 ], [ %48, %47 ]
  %51 = add i64 2, %50
  %52 = sub i64 %51, 2
  br label %79

53:                                               ; preds = %1
  %54 = load ptr, ptr %4, align 8
  %55 = getelementptr inbounds nuw %struct.varattrib_1b, ptr %54, i32 0, i32 0
  %56 = load i8, ptr %55, align 1
  %57 = zext i8 %56 to i32
  %58 = and i32 %57, 1
  %59 = icmp eq i32 %58, 1
  br i1 %59, label %60, label %69

60:                                               ; preds = %53
  %61 = load ptr, ptr %4, align 8
  %62 = getelementptr inbounds nuw %struct.varattrib_1b, ptr %61, i32 0, i32 0
  %63 = load i8, ptr %62, align 1
  %64 = zext i8 %63 to i32
  %65 = ashr i32 %64, 1
  %66 = and i32 %65, 127
  %67 = sext i32 %66 to i64
  %68 = sub i64 %67, 1
  br label %77

69:                                               ; preds = %53
  %70 = load ptr, ptr %4, align 8
  %71 = getelementptr inbounds nuw %struct.anon, ptr %70, i32 0, i32 0
  %72 = load i32, ptr %71, align 4
  %73 = lshr i32 %72, 2
  %74 = and i32 %73, 1073741823
  %75 = sub i32 %74, 4
  %76 = zext i32 %75 to i64
  br label %77

77:                                               ; preds = %69, %60
  %78 = phi i64 [ %68, %60 ], [ %76, %69 ]
  br label %79

79:                                               ; preds = %77, %49
  %80 = phi i64 [ %52, %49 ], [ %78, %77 ]
  %81 = udiv i64 %80, 6
  %82 = trunc i64 %81 to i32
  %83 = getelementptr inbounds nuw %struct.ParsedText, ptr %5, i32 0, i32 1
  store i32 %82, ptr %83, align 8
  %84 = getelementptr inbounds nuw %struct.ParsedText, ptr %5, i32 0, i32 1
  %85 = load i32, ptr %84, align 8
  %86 = icmp slt i32 %85, 2
  br i1 %86, label %87, label %89

87:                                               ; preds = %79
  %88 = getelementptr inbounds nuw %struct.ParsedText, ptr %5, i32 0, i32 1
  store i32 2, ptr %88, align 8
  br label %97

89:                                               ; preds = %79
  %90 = getelementptr inbounds nuw %struct.ParsedText, ptr %5, i32 0, i32 1
  %91 = load i32, ptr %90, align 8
  %92 = sext i32 %91 to i64
  %93 = icmp ugt i64 %92, 44739242
  br i1 %93, label %94, label %96

94:                                               ; preds = %89
  %95 = getelementptr inbounds nuw %struct.ParsedText, ptr %5, i32 0, i32 1
  store i32 44739242, ptr %95, align 8
  br label %96

96:                                               ; preds = %94, %89
  br label %97

97:                                               ; preds = %96, %87
  %98 = getelementptr inbounds nuw %struct.ParsedText, ptr %5, i32 0, i32 2
  store i32 0, ptr %98, align 4
  %99 = getelementptr inbounds nuw %struct.ParsedText, ptr %5, i32 0, i32 3
  store i32 0, ptr %99, align 8
  %100 = getelementptr inbounds nuw %struct.ParsedText, ptr %5, i32 0, i32 1
  %101 = load i32, ptr %100, align 8
  %102 = sext i32 %101 to i64
  %103 = mul i64 24, %102
  %104 = call ptr @palloc(i64 noundef %103)
  %105 = getelementptr inbounds nuw %struct.ParsedText, ptr %5, i32 0, i32 0
  store ptr %104, ptr %105, align 8
  %106 = load i32, ptr %3, align 4
  %107 = load ptr, ptr %4, align 8
  %108 = getelementptr inbounds nuw %struct.varattrib_1b, ptr %107, i32 0, i32 0
  %109 = load i8, ptr %108, align 1
  %110 = zext i8 %109 to i32
  %111 = and i32 %110, 1
  %112 = icmp eq i32 %111, 1
  br i1 %112, label %113, label %117

113:                                              ; preds = %97
  %114 = load ptr, ptr %4, align 8
  %115 = getelementptr inbounds nuw %struct.varattrib_1b, ptr %114, i32 0, i32 1
  %116 = getelementptr inbounds [0 x i8], ptr %115, i64 0, i64 0
  br label %121

117:                                              ; preds = %97
  %118 = load ptr, ptr %4, align 8
  %119 = getelementptr inbounds nuw %struct.anon, ptr %118, i32 0, i32 1
  %120 = getelementptr inbounds [0 x i8], ptr %119, i64 0, i64 0
  br label %121

121:                                              ; preds = %117, %113
  %122 = phi ptr [ %116, %113 ], [ %120, %117 ]
  %123 = load ptr, ptr %4, align 8
  %124 = getelementptr inbounds nuw %struct.varattrib_1b, ptr %123, i32 0, i32 0
  %125 = load i8, ptr %124, align 1
  %126 = zext i8 %125 to i32
  %127 = icmp eq i32 %126, 1
  br i1 %127, label %128, label %156

128:                                              ; preds = %121
  %129 = load ptr, ptr %4, align 8
  %130 = getelementptr inbounds nuw %struct.varattrib_1b_e, ptr %129, i32 0, i32 1
  %131 = load i8, ptr %130, align 1
  %132 = zext i8 %131 to i32
  %133 = icmp eq i32 %132, 1
  br i1 %133, label %134, label %135

134:                                              ; preds = %128
  br label %152

135:                                              ; preds = %128
  %136 = load ptr, ptr %4, align 8
  %137 = getelementptr inbounds nuw %struct.varattrib_1b_e, ptr %136, i32 0, i32 1
  %138 = load i8, ptr %137, align 1
  %139 = zext i8 %138 to i32
  %140 = and i32 %139, -2
  %141 = icmp eq i32 %140, 2
  br i1 %141, label %142, label %143

142:                                              ; preds = %135
  br label %150

143:                                              ; preds = %135
  %144 = load ptr, ptr %4, align 8
  %145 = getelementptr inbounds nuw %struct.varattrib_1b_e, ptr %144, i32 0, i32 1
  %146 = load i8, ptr %145, align 1
  %147 = zext i8 %146 to i32
  %148 = icmp eq i32 %147, 18
  %149 = select i1 %148, i64 16, i64 0
  br label %150

150:                                              ; preds = %143, %142
  %151 = phi i64 [ 8, %142 ], [ %149, %143 ]
  br label %152

152:                                              ; preds = %150, %134
  %153 = phi i64 [ 8, %134 ], [ %151, %150 ]
  %154 = add i64 2, %153
  %155 = sub i64 %154, 2
  br label %182

156:                                              ; preds = %121
  %157 = load ptr, ptr %4, align 8
  %158 = getelementptr inbounds nuw %struct.varattrib_1b, ptr %157, i32 0, i32 0
  %159 = load i8, ptr %158, align 1
  %160 = zext i8 %159 to i32
  %161 = and i32 %160, 1
  %162 = icmp eq i32 %161, 1
  br i1 %162, label %163, label %172

163:                                              ; preds = %156
  %164 = load ptr, ptr %4, align 8
  %165 = getelementptr inbounds nuw %struct.varattrib_1b, ptr %164, i32 0, i32 0
  %166 = load i8, ptr %165, align 1
  %167 = zext i8 %166 to i32
  %168 = ashr i32 %167, 1
  %169 = and i32 %168, 127
  %170 = sext i32 %169 to i64
  %171 = sub i64 %170, 1
  br label %180

172:                                              ; preds = %156
  %173 = load ptr, ptr %4, align 8
  %174 = getelementptr inbounds nuw %struct.anon, ptr %173, i32 0, i32 0
  %175 = load i32, ptr %174, align 4
  %176 = lshr i32 %175, 2
  %177 = and i32 %176, 1073741823
  %178 = sub i32 %177, 4
  %179 = zext i32 %178 to i64
  br label %180

180:                                              ; preds = %172, %163
  %181 = phi i64 [ %171, %163 ], [ %179, %172 ]
  br label %182

182:                                              ; preds = %180, %152
  %183 = phi i64 [ %155, %152 ], [ %181, %180 ]
  %184 = trunc i64 %183 to i32
  call void @parsetext(i32 noundef %106, ptr noundef %5, ptr noundef %122, i32 noundef %184)
  br label %185

185:                                              ; preds = %182
  %186 = load ptr, ptr %4, align 8
  %187 = load ptr, ptr %2, align 8
  %188 = getelementptr inbounds nuw %struct.FunctionCallInfoBaseData, ptr %187, i32 0, i32 6
  %189 = getelementptr inbounds [0 x %struct.NullableDatum], ptr %188, i64 0, i64 1
  %190 = getelementptr inbounds nuw %struct.NullableDatum, ptr %189, i32 0, i32 0
  %191 = load i64, ptr %190, align 8
  %192 = call ptr @DatumGetPointer(i64 noundef %191)
  %193 = icmp ne ptr %186, %192
  br i1 %193, label %194, label %196

194:                                              ; preds = %185
  %195 = load ptr, ptr %4, align 8
  call void @pfree(ptr noundef %195)
  br label %196

196:                                              ; preds = %194, %185
  br label %197

197:                                              ; preds = %196
  br label %198

198:                                              ; preds = %197
  %199 = call ptr @make_tsvector(ptr noundef %5)
  store ptr %199, ptr %6, align 8
  %200 = load ptr, ptr %6, align 8
  %201 = call i64 @TSVectorGetDatum(ptr noundef %200)
  call void @llvm.lifetime.end.p0(i64 8, ptr %6) #7
  call void @llvm.lifetime.end.p0(i64 24, ptr %5) #7
  call void @llvm.lifetime.end.p0(i64 8, ptr %4) #7
  call void @llvm.lifetime.end.p0(i64 4, ptr %3) #7
  ret i64 %201
}